; ModuleID = '21/377.c'
source_filename = "21/377.c"
target datalayout = "e-m:e-p270:32:32-p271:32:32-p272:64:64-i64:64-f80:128-n8:16:32:64-S128"
target triple = "x86_64-pc-linux-gnu"

@.str = private unnamed_addr constant [3 x i8] c"%d\00", align 1
@.str.1 = private unnamed_addr constant [4 x i8] c",%d\00", align 1
@.str.2 = private unnamed_addr constant [2 x i8] c"\0A\00", align 1

; Function Attrs: noinline nounwind uwtable
define dso_local void @main() #0 {
  %1 = alloca i32, align 4
  %2 = alloca i32, align 4
  %3 = alloca i32, align 4
  %4 = alloca [300 x i32], align 16
  %5 = alloca [300 x i32], align 16
  %6 = alloca [300 x float], align 16
  %7 = alloca float, align 4
  %8 = alloca float, align 4
  store float 0.000000e+00, float* %7, align 4
  %9 = call i32 (i8*, ...) @__isoc99_scanf(i8* getelementptr inbounds ([3 x i8], [3 x i8]* @.str, i64 0, i64 0), i32* %2)
  store i32 0, i32* %1, align 4
  br label %10

10:                                               ; preds = %26, %0
  %11 = load i32, i32* %1, align 4
  %12 = load i32, i32* %2, align 4
  %13 = icmp slt i32 %11, %12
  br i1 %13, label %14, label %29

14:                                               ; preds = %10
  %15 = load i32, i32* %1, align 4
  %16 = sext i32 %15 to i64
  %17 = getelementptr inbounds [300 x i32], [300 x i32]* %4, i64 0, i64 %16
  %18 = call i32 (i8*, ...) @__isoc99_scanf(i8* getelementptr inbounds ([3 x i8], [3 x i8]* @.str, i64 0, i64 0), i32* %17)
  %19 = load float, float* %7, align 4
  %20 = load i32, i32* %1, align 4
  %21 = sext i32 %20 to i64
  %22 = getelementptr inbounds [300 x i32], [300 x i32]* %4, i64 0, i64 %21
  %23 = load i32, i32* %22, align 4
  %24 = sitofp i32 %23 to float
  %25 = fadd float %19, %24
  store float %25, float* %7, align 4
  br label %26

26:                                               ; preds = %14
  %27 = load i32, i32* %1, align 4
  %28 = add nsw i32 %27, 1
  store i32 %28, i32* %1, align 4
  br label %10

29:                                               ; preds = %10
  %30 = load float, float* %7, align 4
  %31 = load i32, i32* %2, align 4
  %32 = sitofp i32 %31 to float
  %33 = fdiv float %30, %32
  store float %33, float* %7, align 4
  %34 = getelementptr inbounds [300 x i32], [300 x i32]* %4, i64 0, i64 0
  %35 = load i32, i32* %34, align 16
  %36 = sitofp i32 %35 to float
  %37 = load float, float* %7, align 4
  %38 = fsub float %36, %37
  %39 = fpext float %38 to double
  %40 = call double @llvm.fabs.f64(double %39)
  %41 = fptrunc double %40 to float
  %42 = getelementptr inbounds [300 x float], [300 x float]* %6, i64 0, i64 0
  store float %41, float* %42, align 16
  store float %41, float* %8, align 4
  store i32 1, i32* %1, align 4
  br label %43

43:                                               ; preds = %73, %29
  %44 = load i32, i32* %1, align 4
  %45 = load i32, i32* %2, align 4
  %46 = icmp slt i32 %44, %45
  br i1 %46, label %47, label %76

47:                                               ; preds = %43
  %48 = load i32, i32* %1, align 4
  %49 = sext i32 %48 to i64
  %50 = getelementptr inbounds [300 x i32], [300 x i32]* %4, i64 0, i64 %49
  %51 = load i32, i32* %50, align 4
  %52 = sitofp i32 %51 to float
  %53 = load float, float* %7, align 4
  %54 = fsub float %52, %53
  %55 = fpext float %54 to double
  %56 = call double @llvm.fabs.f64(double %55)
  %57 = fptrunc double %56 to float
  %58 = load i32, i32* %1, align 4
  %59 = sext i32 %58 to i64
  %60 = getelementptr inbounds [300 x float], [300 x float]* %6, i64 0, i64 %59
  store float %57, float* %60, align 4
  %61 = load i32, i32* %1, align 4
  %62 = sext i32 %61 to i64
  %63 = getelementptr inbounds [300 x float], [300 x float]* %6, i64 0, i64 %62
  %64 = load float, float* %63, align 4
  %65 = load float, float* %8, align 4
  %66 = fcmp ogt float %64, %65
  br i1 %66, label %67, label %72

67:                                               ; preds = %47
  %68 = load i32, i32* %1, align 4
  %69 = sext i32 %68 to i64
  %70 = getelementptr inbounds [300 x float], [300 x float]* %6, i64 0, i64 %69
  %71 = load float, float* %70, align 4
  store float %71, float* %8, align 4
  br label %72

72:                                               ; preds = %67, %47
  br label %73

73:                                               ; preds = %72
  %74 = load i32, i32* %1, align 4
  %75 = add nsw i32 %74, 1
  store i32 %75, i32* %1, align 4
  br label %43

76:                                               ; preds = %43
  store i32 0, i32* %3, align 4
  store i32 0, i32* %1, align 4
  br label %77

77:                                               ; preds = %98, %76
  %78 = load i32, i32* %1, align 4
  %79 = load i32, i32* %2, align 4
  %80 = icmp slt i32 %78, %79
  br i1 %80, label %81, label %101

81:                                               ; preds = %77
  %82 = load i32, i32* %1, align 4
  %83 = sext i32 %82 to i64
  %84 = getelementptr inbounds [300 x float], [300 x float]* %6, i64 0, i64 %83
  %85 = load float, float* %84, align 4
  %86 = load float, float* %8, align 4
  %87 = fcmp oeq float %85, %86
  br i1 %87, label %88, label %97

88:                                               ; preds = %81
  %89 = load i32, i32* %1, align 4
  %90 = sext i32 %89 to i64
  %91 = getelementptr inbounds [300 x i32], [300 x i32]* %4, i64 0, i64 %90
  %92 = load i32, i32* %91, align 4
  %93 = load i32, i32* %3, align 4
  %94 = add nsw i32 %93, 1
  store i32 %94, i32* %3, align 4
  %95 = sext i32 %93 to i64
  %96 = getelementptr inbounds [300 x i32], [300 x i32]* %5, i64 0, i64 %95
  store i32 %92, i32* %96, align 4
  br label %97

97:                                               ; preds = %88, %81
  br label %98

98:                                               ; preds = %97
  %99 = load i32, i32* %1, align 4
  %100 = add nsw i32 %99, 1
  store i32 %100, i32* %1, align 4
  br label %77

101:                                              ; preds = %77
  %102 = getelementptr inbounds [300 x i32], [300 x i32]* %5, i64 0, i64 0
  %103 = load i32, i32* %102, align 16
  %104 = call i32 (i8*, ...) @printf(i8* getelementptr inbounds ([3 x i8], [3 x i8]* @.str, i64 0, i64 0), i32 %103)
  store i32 1, i32* %1, align 4
  br label %105

105:                                              ; preds = %115, %101
  %106 = load i32, i32* %1, align 4
  %107 = load i32, i32* %3, align 4
  %108 = icmp slt i32 %106, %107
  br i1 %108, label %109, label %118

109:                                              ; preds = %105
  %110 = load i32, i32* %1, align 4
  %111 = sext i32 %110 to i64
  %112 = getelementptr inbounds [300 x i32], [300 x i32]* %5, i64 0, i64 %111
  %113 = load i32, i32* %112, align 4
  %114 = call i32 (i8*, ...) @printf(i8* getelementptr inbounds ([4 x i8], [4 x i8]* @.str.1, i64 0, i64 0), i32 %113)
  br label %115

115:                                              ; preds = %109
  %116 = load i32, i32* %1, align 4
  %117 = add nsw i32 %116, 1
  store i32 %117, i32* %1, align 4
  br label %105

118:                                              ; preds = %105
  %119 = call i32 (i8*, ...) @printf(i8* getelementptr inbounds ([2 x i8], [2 x i8]* @.str.2, i64 0, i64 0))
  ret void
}

declare dso_local i32 @__isoc99_scanf(i8*, ...) #1

; Function Attrs: nounwind readnone speculatable willreturn
declare double @llvm.fabs.f64(double) #2

declare dso_local i32 @printf(i8*, ...) #1


!llvm.module.flags = !{!0}
!llvm.ident = !{!1}

!0 = !{i32 1, !"wchar_size", i32 4}
!1 = !{!"clang version 10.0.0-4ubuntu1 "}
